target datalayout = "e-m:e-p270:32:32-p271:32:32-p272:64:64-i64:64-i128:128-f80:128-n8:16:32:64-S128"
target triple = "x86_64-pc-linux-gnu"

@.str.1 = private unnamed_addr constant [2 x i8] c"r\00", align 1
@.str.3 = private unnamed_addr constant [14 x i8] c"/proc/meminfo\00", align 1
@.str.4 = private unnamed_addr constant [10 x i8] c"MemTotal:\00", align 1

; Function Attrs: mustprogress uwtable
define noundef i64 @_ZN11OpenImageIO6v3_1_07Sysutil15physical_memoryEv() #6 {
  %1 = alloca i64, align 8
  %2 = alloca ptr, align 8
  %3 = alloca [1024 x i8], align 16
  call void @llvm.lifetime.start.p0(i64 8, ptr %1) #3
  store i64 0, ptr %1, align 8, !tbaa !10
  call void @llvm.lifetime.start.p0(i64 8, ptr %2) #3
  %4 = call noalias ptr @fopen(ptr noundef @.str.3, ptr noundef @.str.1)
  store ptr %4, ptr %2, align 8, !tbaa !12
  %5 = load ptr, ptr %2, align 8, !tbaa !12
  %6 = icmp ne ptr %5, null
  br i1 %6, label %7, label %26

7:                                                ; preds = %0
  call void @llvm.lifetime.start.p0(i64 1024, ptr %3) #3
  br label %8

8:                                                ; preds = %22, %7
  %9 = getelementptr inbounds [1024 x i8], ptr %3, i64 0, i64 0
  %10 = load ptr, ptr %2, align 8, !tbaa !12
  %11 = call ptr @fgets(ptr noundef %9, i32 noundef 1024, ptr noundef %10)
  %12 = icmp ne ptr %11, null
  br i1 %12, label %13, label %23

13:                                               ; preds = %8
  %14 = getelementptr inbounds [1024 x i8], ptr %3, i64 0, i64 0
  %15 = call i32 @strncmp(ptr noundef %14, ptr noundef @.str.4, i64 noundef 9) #25
  %16 = icmp ne i32 %15, 0
  br i1 %16, label %22, label %17

17:                                               ; preds = %13
  %18 = getelementptr inbounds [1024 x i8], ptr %3, i64 0, i64 0
  %19 = getelementptr inbounds i8, ptr %18, i64 9
  %20 = call i64 @strtol(ptr noundef %19, ptr noundef null, i32 noundef 10) #3
  %21 = mul i64 1024, %20
  store i64 %21, ptr %1, align 8, !tbaa !10
  br label %23

22:                                               ; preds = %13
  br label %8, !llvm.loop !18

23:                                               ; preds = %17, %8
  %24 = load ptr, ptr %2, align 8, !tbaa !12
  %25 = call i32 @fclose(ptr noundef %24)
  call void @llvm.lifetime.end.p0(i64 1024, ptr %3) #3
  br label %26

26:                                               ; preds = %23, %0
  %27 = load i64, ptr %1, align 8, !tbaa !10
  call void @llvm.lifetime.end.p0(i64 8, ptr %2) #3
  call void @llvm.lifetime.end.p0(i64 8, ptr %1) #3
  ret i64 %27
}