; Function Attrs: mustprogress nofree nounwind uwtable
define noundef range(i64 0, -1023) i64 @_ZN11OpenImageIO6v3_1_07Sysutil15physical_memoryEv() local_unnamed_addr #9 {
  %1 = alloca [1024 x i8], align 16
  %2 = tail call noalias ptr @fopen(ptr noundef nonnull @.str.3, ptr noundef nonnull @.str.1)
  %.not = icmp eq ptr %2, null
  br i1 %.not, label %12, label %3

3:                                                ; preds = %0
  call void @llvm.lifetime.start.p0(i64 1024, ptr nonnull %1) #32
  br label %4

4:                                                ; preds = %6, %3
  %5 = call ptr @fgets(ptr noundef nonnull %1, i32 noundef 1024, ptr noundef nonnull %2)
  %.not4 = icmp eq ptr %5, null
  br i1 %.not4, label %.loopexit, label %6

6:                                                ; preds = %4
  %bcmp = call i32 @bcmp(ptr noundef nonnull dereferenceable(9) %1, ptr noundef nonnull dereferenceable(9) @.str.4, i64 9)
  %.not5 = icmp eq i32 %bcmp, 0
  br i1 %.not5, label %7, label %4, !llvm.loop !7

7:                                                ; preds = %6
  %8 = getelementptr inbounds nuw i8, ptr %1, i64 9
  %9 = call i64 @strtol(ptr noundef nonnull captures(none) %8, ptr noundef null, i32 noundef 10) #32
  %10 = shl i64 %9, 10
  br label %.loopexit

.loopexit:                                        ; preds = %4, %7
  %.1 = phi i64 [ %10, %7 ], [ 0, %4 ]
  %11 = call i32 @fclose(ptr noundef nonnull %2)
  call void @llvm.lifetime.end.p0(i64 1024, ptr nonnull %1) #32
  br label %12

12:                                               ; preds = %.loopexit, %0
  %.0 = phi i64 [ %.1, %.loopexit ], [ 0, %0 ]
  ret i64 %.0
}